; ModuleID = '60/1956.c'
source_filename = "60/1956.c"
target datalayout = "e-m:e-p270:32:32-p271:32:32-p272:64:64-i64:64-f80:128-n8:16:32:64-S128"
target triple = "x86_64-pc-linux-gnu"

@.str = private unnamed_addr constant [3 x i8] c"%d\00", align 1
@.str.1 = private unnamed_addr constant [6 x i8] c"empty\00", align 1
@.str.2 = private unnamed_addr constant [7 x i8] c"%d %d\0A\00", align 1

; Function Attrs: noinline nounwind uwtable
define dso_local i32 @main() #0 {
  %1 = alloca i32, align 4
  %2 = alloca i32, align 4
  %3 = alloca i32, align 4
  %4 = alloca i32, align 4
  %5 = alloca i32*, align 8
  store i32 0, i32* %1, align 4
  %6 = call i32 (i8*, ...) @__isoc99_scanf(i8* getelementptr inbounds ([3 x i8], [3 x i8]* @.str, i64 0, i64 0), i32* %2)
  %7 = load i32, i32* %2, align 4
  %8 = icmp slt i32 %7, 5
  br i1 %8, label %9, label %11

9:                                                ; preds = %0
  %10 = call i32 (i8*, ...) @printf(i8* getelementptr inbounds ([6 x i8], [6 x i8]* @.str.1, i64 0, i64 0))
  br label %95

11:                                               ; preds = %0
  %12 = load i32, i32* %2, align 4
  %13 = sext i32 %12 to i64
  %14 = mul i64 %13, 4
  %15 = call noalias i8* @malloc(i64 %14) #3
  %16 = bitcast i8* %15 to i32*
  store i32* %16, i32** %5, align 8
  store i32 2, i32* %3, align 4
  br label %17

17:                                               ; preds = %26, %11
  %18 = load i32, i32* %3, align 4
  %19 = load i32, i32* %2, align 4
  %20 = icmp sle i32 %18, %19
  br i1 %20, label %21, label %29

21:                                               ; preds = %17
  %22 = load i32*, i32** %5, align 8
  %23 = load i32, i32* %3, align 4
  %24 = sext i32 %23 to i64
  %25 = getelementptr inbounds i32, i32* %22, i64 %24
  store i32 1, i32* %25, align 4
  br label %26

26:                                               ; preds = %21
  %27 = load i32, i32* %3, align 4
  %28 = add nsw i32 %27, 1
  store i32 %28, i32* %3, align 4
  br label %17

29:                                               ; preds = %17
  store i32 2, i32* %3, align 4
  br label %30

30:                                               ; preds = %61, %29
  %31 = load i32, i32* %3, align 4
  %32 = load i32, i32* %2, align 4
  %33 = sdiv i32 %32, 2
  %34 = icmp sle i32 %31, %33
  br i1 %34, label %35, label %64

35:                                               ; preds = %30
  %36 = load i32*, i32** %5, align 8
  %37 = load i32, i32* %3, align 4
  %38 = sext i32 %37 to i64
  %39 = getelementptr inbounds i32, i32* %36, i64 %38
  %40 = load i32, i32* %39, align 4
  %41 = icmp eq i32 %40, 1
  br i1 %41, label %42, label %60

42:                                               ; preds = %35
  %43 = load i32, i32* %3, align 4
  %44 = load i32, i32* %3, align 4
  %45 = add nsw i32 %43, %44
  store i32 %45, i32* %4, align 4
  br label %46

46:                                               ; preds = %55, %42
  %47 = load i32, i32* %4, align 4
  %48 = load i32, i32* %2, align 4
  %49 = icmp slt i32 %47, %48
  br i1 %49, label %50, label %59

50:                                               ; preds = %46
  %51 = load i32*, i32** %5, align 8
  %52 = load i32, i32* %4, align 4
  %53 = sext i32 %52 to i64
  %54 = getelementptr inbounds i32, i32* %51, i64 %53
  store i32 0, i32* %54, align 4
  br label %55

55:                                               ; preds = %50
  %56 = load i32, i32* %3, align 4
  %57 = load i32, i32* %4, align 4
  %58 = add nsw i32 %57, %56
  store i32 %58, i32* %4, align 4
  br label %46

59:                                               ; preds = %46
  br label %60

60:                                               ; preds = %59, %35
  br label %61

61:                                               ; preds = %60
  %62 = load i32, i32* %3, align 4
  %63 = add nsw i32 %62, 1
  store i32 %63, i32* %3, align 4
  br label %30

64:                                               ; preds = %30
  store i32 3, i32* %3, align 4
  br label %65

65:                                               ; preds = %91, %64
  %66 = load i32, i32* %3, align 4
  %67 = load i32, i32* %2, align 4
  %68 = sub nsw i32 %67, 1
  %69 = icmp slt i32 %66, %68
  br i1 %69, label %70, label %94

70:                                               ; preds = %65
  %71 = load i32*, i32** %5, align 8
  %72 = load i32, i32* %3, align 4
  %73 = sext i32 %72 to i64
  %74 = getelementptr inbounds i32, i32* %71, i64 %73
  %75 = load i32, i32* %74, align 4
  %76 = icmp eq i32 %75, 1
  br i1 %76, label %77, label %90

77:                                               ; preds = %70
  %78 = load i32*, i32** %5, align 8
  %79 = load i32, i32* %3, align 4
  %80 = add nsw i32 %79, 2
  %81 = sext i32 %80 to i64
  %82 = getelementptr inbounds i32, i32* %78, i64 %81
  %83 = load i32, i32* %82, align 4
  %84 = icmp eq i32 %83, 1
  br i1 %84, label %85, label %90

85:                                               ; preds = %77
  %86 = load i32, i32* %3, align 4
  %87 = load i32, i32* %3, align 4
  %88 = add nsw i32 %87, 2
  %89 = call i32 (i8*, ...) @printf(i8* getelementptr inbounds ([7 x i8], [7 x i8]* @.str.2, i64 0, i64 0), i32 %86, i32 %88)
  br label %90

90:                                               ; preds = %85, %77, %70
  br label %91

91:                                               ; preds = %90
  %92 = load i32, i32* %3, align 4
  %93 = add nsw i32 2, %92
  store i32 %93, i32* %3, align 4
  br label %65

94:                                               ; preds = %65
  br label %95

95:                                               ; preds = %94, %9
  %96 = load i32, i32* %1, align 4
  ret i32 %96
}

declare dso_local i32 @__isoc99_scanf(i8*, ...) #1

declare dso_local i32 @printf(i8*, ...) #1

; Function Attrs: nounwind
declare dso_local noalias i8* @malloc(i64) #2


!llvm.module.flags = !{!0}
!llvm.ident = !{!1}

!0 = !{i32 1, !"wchar_size", i32 4}
!1 = !{!"clang version 10.0.0-4ubuntu1 "}
